target datalayout = "e-m:e-p270:32:32-p271:32:32-p272:64:64-i64:64-i128:128-f80:128-n8:16:32:64-S128"
target triple = "x86_64-pc-linux-gnu"

%struct.lua_Debug = type { i32, ptr, ptr, ptr, ptr, i32, i32, i32, i32, [60 x i8], i32 }

@.str.42 = private unnamed_addr constant [27 x i8] c"level must be non-negative\00", align 1
@.str.43 = private unnamed_addr constant [14 x i8] c"invalid level\00", align 1
@.str.44 = private unnamed_addr constant [2 x i8] c"f\00", align 1
@.str.45 = private unnamed_addr constant [50 x i8] c"no function environment for tail call at level %d\00", align 1

; Function Attrs: nounwind uwtable
define internal void @getfunc(ptr noundef %0, i32 noundef %1) #0 {
  %3 = alloca ptr, align 8
  %4 = alloca i32, align 4
  %5 = alloca %struct.lua_Debug, align 8
  %6 = alloca i32, align 4
  store ptr %0, ptr %3, align 8, !tbaa !4
  store i32 %1, ptr %4, align 4, !tbaa !12
  %7 = load ptr, ptr %3, align 8, !tbaa !4
  %8 = call i32 @lua_type(ptr noundef %7, i32 noundef 1)
  %9 = icmp eq i32 %8, 6
  br i1 %9, label %10, label %12

10:                                               ; preds = %2
  %11 = load ptr, ptr %3, align 8, !tbaa !4
  call void @lua_pushvalue(ptr noundef %11, i32 noundef 1)
  br label %49

12:                                               ; preds = %2
  call void @llvm.lifetime.start.p0(i64 120, ptr %5) #5
  call void @llvm.lifetime.start.p0(i64 4, ptr %6) #5
  %13 = load i32, ptr %4, align 4, !tbaa !12
  %14 = icmp ne i32 %13, 0
  br i1 %14, label %15, label %19

15:                                               ; preds = %12
  %16 = load ptr, ptr %3, align 8, !tbaa !4
  %17 = call i64 @luaL_optinteger(ptr noundef %16, i32 noundef 1, i64 noundef 1)
  %18 = trunc i64 %17 to i32
  br label %23

19:                                               ; preds = %12
  %20 = load ptr, ptr %3, align 8, !tbaa !4
  %21 = call i64 @luaL_checkinteger(ptr noundef %20, i32 noundef 1)
  %22 = trunc i64 %21 to i32
  br label %23

23:                                               ; preds = %19, %15
  %24 = phi i32 [ %18, %15 ], [ %22, %19 ]
  store i32 %24, ptr %6, align 4, !tbaa !12
  %25 = load i32, ptr %6, align 4, !tbaa !12
  %26 = icmp sge i32 %25, 0
  br i1 %26, label %30, label %27

27:                                               ; preds = %23
  %28 = load ptr, ptr %3, align 8, !tbaa !4
  %29 = call i32 @luaL_argerror(ptr noundef %28, i32 noundef 1, ptr noundef @.str.42)
  br label %30

30:                                               ; preds = %27, %23
  %31 = load ptr, ptr %3, align 8, !tbaa !4
  %32 = load i32, ptr %6, align 4, !tbaa !12
  %33 = call i32 @lua_getstack(ptr noundef %31, i32 noundef %32, ptr noundef %5)
  %34 = icmp eq i32 %33, 0
  br i1 %34, label %35, label %38

35:                                               ; preds = %30
  %36 = load ptr, ptr %3, align 8, !tbaa !4
  %37 = call i32 @luaL_argerror(ptr noundef %36, i32 noundef 1, ptr noundef @.str.43)
  br label %38

38:                                               ; preds = %35, %30
  %39 = load ptr, ptr %3, align 8, !tbaa !4
  %40 = call i32 @lua_getinfo(ptr noundef %39, ptr noundef @.str.44, ptr noundef %5)
  %41 = load ptr, ptr %3, align 8, !tbaa !4
  %42 = call i32 @lua_type(ptr noundef %41, i32 noundef -1)
  %43 = icmp eq i32 %42, 0
  br i1 %43, label %44, label %48

44:                                               ; preds = %38
  %45 = load ptr, ptr %3, align 8, !tbaa !4
  %46 = load i32, ptr %6, align 4, !tbaa !12
  %47 = call i32 (ptr, ptr, ...) @luaL_error(ptr noundef %45, ptr noundef @.str.45, i32 noundef %46)
  br label %48

48:                                               ; preds = %44, %38
  call void @llvm.lifetime.end.p0(i64 4, ptr %6) #5
  call void @llvm.lifetime.end.p0(i64 120, ptr %5) #5
  br label %49

49:                                               ; preds = %48, %10
  ret void
}