; Function Attrs: nounwind uwtable
define internal fastcc void @getfunc(ptr noundef %0, i32 noundef range(i32 0, 2) %1) unnamed_addr #0 {
  %3 = alloca %struct.lua_Debug, align 8
  %4 = tail call i32 @lua_type(ptr noundef %0, i32 noundef 1) #8
  %5 = icmp eq i32 %4, 6
  br i1 %5, label %6, label %7

6:                                                ; preds = %2
  tail call void @lua_pushvalue(ptr noundef %0, i32 noundef 1) #8
  br label %29

7:                                                ; preds = %2
  call void @llvm.lifetime.start.p0(i64 120, ptr nonnull %3) #8
  %.not = icmp eq i32 %1, 0
  br i1 %.not, label %10, label %8

8:                                                ; preds = %7
  %9 = tail call i64 @luaL_optinteger(ptr noundef %0, i32 noundef 1, i64 noundef 1) #8
  br label %12

10:                                               ; preds = %7
  %11 = tail call i64 @luaL_checkinteger(ptr noundef %0, i32 noundef 1) #8
  br label %12

12:                                               ; preds = %10, %8
  %.in = phi i64 [ %9, %8 ], [ %11, %10 ]
  %13 = trunc i64 %.in to i32
  %14 = icmp sgt i32 %13, -1
  br i1 %14, label %17, label %15

15:                                               ; preds = %12
  %16 = tail call i32 @luaL_argerror(ptr noundef %0, i32 noundef 1, ptr noundef nonnull @.str.42) #8
  br label %17

17:                                               ; preds = %15, %12
  %18 = call i32 @lua_getstack(ptr noundef %0, i32 noundef %13, ptr noundef nonnull %3) #8
  %19 = icmp eq i32 %18, 0
  br i1 %19, label %20, label %22

20:                                               ; preds = %17
  %21 = call i32 @luaL_argerror(ptr noundef %0, i32 noundef 1, ptr noundef nonnull @.str.43) #8
  br label %22

22:                                               ; preds = %20, %17
  %23 = call i32 @lua_getinfo(ptr noundef %0, ptr noundef nonnull @.str.44, ptr noundef nonnull %3) #8
  %24 = call i32 @lua_type(ptr noundef %0, i32 noundef -1) #8
  %25 = icmp eq i32 %24, 0
  br i1 %25, label %26, label %28

26:                                               ; preds = %22
  %27 = call i32 (ptr, ptr, ...) @luaL_error(ptr noundef %0, ptr noundef nonnull @.str.45, i32 noundef %13) #8
  br label %28

28:                                               ; preds = %26, %22
  call void @llvm.lifetime.end.p0(i64 120, ptr nonnull %3) #8
  br label %29

29:                                               ; preds = %28, %6
  ret void
}